target datalayout = "e-m:e-p270:32:32-p271:32:32-p272:64:64-i64:64-i128:128-f80:128-n8:16:32:64-S128"
target triple = "x86_64-pc-linux-gnu"

; Function Attrs: nounwind uwtable
define dso_local ptr @syncrep_yyrealloc(ptr noundef %0, i64 noundef %1, ptr noundef %2) #0 {
  %4 = alloca ptr, align 8
  %5 = alloca ptr, align 8
  %6 = alloca i64, align 8
  %7 = alloca ptr, align 8
  store ptr %0, ptr %5, align 8
  store i64 %1, ptr %6, align 8
  store ptr %2, ptr %7, align 8
  %8 = load ptr, ptr %5, align 8
  %9 = icmp ne ptr %8, null
  br i1 %9, label %10, label %14

10:                                               ; preds = %3
  %11 = load ptr, ptr %5, align 8
  %12 = load i64, ptr %6, align 8
  %13 = call ptr @repalloc(ptr noundef %11, i64 noundef %12)
  store ptr %13, ptr %4, align 8
  br label %17

14:                                               ; preds = %3
  %15 = load i64, ptr %6, align 8
  %16 = call ptr @palloc(i64 noundef %15)
  store ptr %16, ptr %4, align 8
  br label %17

17:                                               ; preds = %14, %10
  %18 = load ptr, ptr %4, align 8
  ret ptr %18
}